libjbig2enc.so.0 libjbig2enc0 #MINVER#
 _Z10getVersionv@Base 0.28+git0693dcd
 _Z10jbig2_initffiibi@Base 0.28+git0693dcd
 _Z12jbig2enc_intP12jbig2enc_ctxii@Base 0.28+git0693dcd
 _Z12jbig2enc_oobP12jbig2enc_ctxi@Base 0.28+git0693dcd
 _Z13jbig2_destroyP8jbig2ctx@Base 0.28+git0693dcd
 _Z13jbig2enc_iaidP12jbig2enc_ctxii@Base 0.28+git0693dcd
 _Z13jbig2enc_initP12jbig2enc_ctx@Base 0.28+git0693dcd
 _Z14jbig2_add_pageP8jbig2ctxP3Pix@Base 0.28+git0693dcd
 _Z14jbig2enc_finalP12jbig2enc_ctx@Base 0.28+git0693dcd
 _Z14jbig2enc_flushP12jbig2enc_ctx@Base 0.28+git0693dcd
 _Z14jbig2enc_imageP12jbig2enc_ctxPKhiib@Base 0.28+git0693dcd
 _Z14jbig2enc_resetP12jbig2enc_ctx@Base 0.28+git0693dcd
 _Z15jbig2enc_refineP12jbig2enc_ctxPKhiiS2_iiii@Base 0.28+git0693dcd
 _Z16jbig2enc_deallocP12jbig2enc_ctx@Base 0.28+git0693dcd
 _Z17jbig2enc_bitimageP12jbig2enc_ctxPKhiib@Base 0.28+git0693dcd
 _Z17jbig2enc_datasizePK12jbig2enc_ctx@Base 0.28+git0693dcd
 _Z17jbig2enc_tobufferPK12jbig2enc_ctxPh@Base 0.28+git0693dcd
 _Z18jbig2_produce_pageP8jbig2ctxiiiPi@Base 0.28+git0693dcd
 _Z19jbig2enc_textregionP12jbig2enc_ctxRSt3mapIiiSt4lessIiESaISt4pairIKiiEEES9_RKSt6vectorIiSaIiEEP3PtaP4PixaP4NumaiiSI_P4Boxaiib@Base 0.28+git0693dcd
 _Z20jbig2_encode_genericP3PixbiibPi@Base 0.28+git0693dcd
 _Z20jbig2_pages_completeP8jbig2ctxPi@Base 0.28+git0693dcd
 _Z20jbig2enc_symboltableP12jbig2enc_ctxP4PixaPSt6vectorIjSaIjEEPSt3mapIiiSt4lessIiESaISt4pairIKiiEEEb@Base 0.28+git0693dcd
 _Z23jbig2enc_are_equivalentP3PixS0_@Base 0.28+git0693dcd
 _Z23jbig2enc_auto_thresholdP8jbig2ctx@Base 0.28+git0693dcd
 _Z34jbig2enc_auto_threshold_using_hashP8jbig2ctx@Base 0.28+git0693dcd
 _ZNSt6vectorIPhSaIS0_EE17_M_realloc_insertIJRKS0_EEEvN9__gnu_cxx17__normal_iteratorIPS0_S2_EEDpOT_@Base 0.28+git0693dcd-0ubuntu1~
#MISSING: 0.28+git0693dcd-0ubuntu1~# _ZNSt6vectorIPhSaIS0_EE19_M_emplace_back_auxIJRKS0_EEEvDpOT_@Base 0.28+git0693dcd
 _ZNSt6vectorIiSaIiEE12emplace_backIJiEEEvDpOT_@Base 0.28+git0693dcd
 _ZNSt6vectorIiSaIiEE17_M_realloc_insertIJRKiEEEvN9__gnu_cxx17__normal_iteratorIPiS1_EEDpOT_@Base 0.28+git0693dcd-0ubuntu1~
 _ZNSt6vectorIiSaIiEE17_M_realloc_insertIJiEEEvN9__gnu_cxx17__normal_iteratorIPiS1_EEDpOT_@Base 0.28+git0693dcd-0ubuntu1~
#MISSING: 0.28+git0693dcd-0ubuntu1~# _ZNSt6vectorIiSaIiEE19_M_emplace_back_auxIJiEEEvDpOT_@Base 0.28+git0693dcd
 _ZNSt6vectorIiSaIiEEaSERKS1_@Base 0.28+git0693dcd
 _ZNSt6vectorIjSaIjEE12emplace_backIJjEEEvDpOT_@Base 0.28+git0693dcd
 _ZNSt6vectorIjSaIjEE17_M_realloc_insertIJRKjEEEvN9__gnu_cxx17__normal_iteratorIPjS1_EEDpOT_@Base 0.28+git0693dcd-0ubuntu1~
 _ZNSt6vectorIjSaIjEE17_M_realloc_insertIJjEEEvN9__gnu_cxx17__normal_iteratorIPjS1_EEDpOT_@Base 0.28+git0693dcd-0ubuntu1~
#MISSING: 0.28+git0693dcd-0ubuntu1~# _ZNSt6vectorIjSaIjEE19_M_emplace_back_auxIJjEEEvDpOT_@Base 0.28+git0693dcd
 _ZNSt7__cxx114listIiSaIiEE4sortEv@Base 0.28+git0693dcd
 _ZNSt7__cxx114listIiSaIiEE5mergeEOS2_@Base 0.28+git0693dcd
 _ZNSt8_Rb_treeIiSt4pairIKiSt6vectorIiSaIiEEESt10_Select1stIS5_ESt4lessIiESaIS5_EE24_M_get_insert_unique_posERS1_@Base 0.28+git0693dcd
 _ZNSt8_Rb_treeIiSt4pairIKiSt6vectorIiSaIiEEESt10_Select1stIS5_ESt4lessIiESaIS5_EE29_M_get_insert_hint_unique_posESt23_Rb_tree_const_iteratorIS5_ERS1_@Base 0.28+git0693dcd
 _ZNSt8_Rb_treeIiSt4pairIKiSt6vectorIiSaIiEEESt10_Select1stIS5_ESt4lessIiESaIS5_EE8_M_eraseEPSt13_Rb_tree_nodeIS5_E@Base 0.28+git0693dcd
 _ZNSt8_Rb_treeIiSt4pairIKiSt6vectorIjSaIjEEESt10_Select1stIS5_ESt4lessIiESaIS5_EE24_M_get_insert_unique_posERS1_@Base 0.28+git0693dcd
 _ZNSt8_Rb_treeIiSt4pairIKiSt6vectorIjSaIjEEESt10_Select1stIS5_ESt4lessIiESaIS5_EE29_M_get_insert_hint_unique_posESt23_Rb_tree_const_iteratorIS5_ERS1_@Base 0.28+git0693dcd
 _ZNSt8_Rb_treeIiSt4pairIKiSt6vectorIjSaIjEEESt10_Select1stIS5_ESt4lessIiESaIS5_EE8_M_eraseEPSt13_Rb_tree_nodeIS5_E@Base 0.28+git0693dcd
 _ZNSt8_Rb_treeIiSt4pairIKiiESt10_Select1stIS2_ESt4lessIiESaIS2_EE24_M_get_insert_unique_posERS1_@Base 0.28+git0693dcd
 _ZNSt8_Rb_treeIiSt4pairIKiiESt10_Select1stIS2_ESt4lessIiESaIS2_EE29_M_get_insert_hint_unique_posESt23_Rb_tree_const_iteratorIS2_ERS1_@Base 0.28+git0693dcd
 _ZNSt8_Rb_treeIiSt4pairIKiiESt10_Select1stIS2_ESt4lessIiESaIS2_EE8_M_eraseEPSt13_Rb_tree_nodeIS2_E@Base 0.28+git0693dcd
#MISSING: 0.28+git0693dcd-0ubuntu1~# _ZNSt8_Rb_treeIjSt4pairIKjNSt7__cxx114listIiSaIiEEEESt10_Select1stIS6_ESt4lessIjESaIS6_EE16_M_insert_uniqueIS0_IjS5_EEES0_ISt17_Rb_tree_iteratorIS6_EbEOT_@Base 0.28+git0693dcd
 _ZNSt8_Rb_treeIjSt4pairIKjNSt7__cxx114listIiSaIiEEEESt10_Select1stIS6_ESt4lessIjESaIS6_EE17_M_emplace_uniqueIJS0_IjS5_EEEES0_ISt17_Rb_tree_iteratorIS6_EbEDpOT_@Base 0.28+git0693dcd-0ubuntu1~
 _ZNSt8_Rb_treeIjSt4pairIKjNSt7__cxx114listIiSaIiEEEESt10_Select1stIS6_ESt4lessIjESaIS6_EE8_M_eraseEPSt13_Rb_tree_nodeIS6_E@Base 0.28+git0693dcd
 _ZSt13__adjust_heapIN9__gnu_cxx17__normal_iteratorIPiSt6vectorIiSaIiEEEEliNS0_5__ops15_Iter_comp_iterI11WidthSorterEEEvT_T0_SC_T1_T2_@Base 0.28+git0693dcd
 _ZSt13__adjust_heapIN9__gnu_cxx17__normal_iteratorIPiSt6vectorIiSaIiEEEEliNS0_5__ops15_Iter_comp_iterI7XSorterEEEvT_T0_SC_T1_T2_@Base 0.28+git0693dcd
 _ZSt13__adjust_heapIN9__gnu_cxx17__normal_iteratorIPiSt6vectorIiSaIiEEEEliNS0_5__ops15_Iter_comp_iterI7YSorterEEEvT_T0_SC_T1_T2_@Base 0.28+git0693dcd
 _ZSt13__adjust_heapIN9__gnu_cxx17__normal_iteratorIPjSt6vectorIjSaIjEEEEljNS0_5__ops15_Iter_comp_iterI12HeightSorterEEEvT_T0_SC_T1_T2_@Base 0.28+git0693dcd
 _ZSt16__insertion_sortIN9__gnu_cxx17__normal_iteratorIPiSt6vectorIiSaIiEEEENS0_5__ops15_Iter_comp_iterI11WidthSorterEEEvT_SB_T0_@Base 0.28+git0693dcd
 _ZSt16__insertion_sortIN9__gnu_cxx17__normal_iteratorIPiSt6vectorIiSaIiEEEENS0_5__ops15_Iter_comp_iterI7XSorterEEEvT_SB_T0_@Base 0.28+git0693dcd
 _ZSt16__insertion_sortIN9__gnu_cxx17__normal_iteratorIPiSt6vectorIiSaIiEEEENS0_5__ops15_Iter_comp_iterI7YSorterEEEvT_SB_T0_@Base 0.28+git0693dcd
 _ZSt16__insertion_sortIN9__gnu_cxx17__normal_iteratorIPjSt6vectorIjSaIjEEEENS0_5__ops15_Iter_comp_iterI12HeightSorterEEEvT_SB_T0_@Base 0.28+git0693dcd
 _ZSt16__introsort_loopIN9__gnu_cxx17__normal_iteratorIPiSt6vectorIiSaIiEEEElNS0_5__ops15_Iter_comp_iterI11WidthSorterEEEvT_SB_T0_T1_@Base 0.28+git0693dcd
 _ZSt16__introsort_loopIN9__gnu_cxx17__normal_iteratorIPiSt6vectorIiSaIiEEEElNS0_5__ops15_Iter_comp_iterI7XSorterEEEvT_SB_T0_T1_@Base 0.28+git0693dcd
 _ZSt16__introsort_loopIN9__gnu_cxx17__normal_iteratorIPiSt6vectorIiSaIiEEEElNS0_5__ops15_Iter_comp_iterI7YSorterEEEvT_SB_T0_T1_@Base 0.28+git0693dcd
 _ZSt16__introsort_loopIN9__gnu_cxx17__normal_iteratorIPjSt6vectorIjSaIjEEEElNS0_5__ops15_Iter_comp_iterI12HeightSorterEEEvT_SB_T0_T1_@Base 0.28+git0693dcd
 ctbl@Base 0.28+git0693dcd
